
echo.riscv:     file format elf32-littleriscv

Contents of section .text:
 10074 130101f7 23261108 37050100 13054540  ....#&..7.....E@
 10084 97000000 e780800c 93050008 13050100  ................
 10094 97000000 e780400f 37050100 13058543  ......@.7......C
 100a4 97000000 e780800a 13050100 97000000  ................
 100b4 e780c009 13050000 8320c108 13010109  ......... ......
 100c4 67800000 37050001 13010500 37050002  g...7.......7...
 100d4 97000000 e780401f 37050001 97000000  ......@.7.......
 100e4 e7800001 97000000 e7804005 130101ff  ..........@.....
 100f4 23261100 93054500 03250500 97000000  #&....E..%......
 10104 e78040f7 8320c100 13010101 67800000  ..@.. ......g...
 10114 93081000 73000000 13050500 1375f50f  ....s........u..
 10124 67800000 93070500 13850700 93082000  g............. .
 10134 73000000 67800000 13050500 93083000  s...g.........0.
 10144 73000000 67800000 130101ff 23261100  s...g.......#&..
 10154 23248100 13040500 03450500 630c0500  #$.......E..c...
 10164 13041400 97000000 e78000fc 03450400  .............E..
 10174 e31805fe 8320c100 03248100 13010101  ..... ...$......
 10184 67800000 130101fe 232e1100 232c8100  g.......#...#,..
 10194 232a9100 23282101 23263101 13040500  #*..#(!.#&1.....
 101a4 93840500 97000000 e780c0f6 9307a000  ................
 101b4 6302f504 9307d000 630ef502 93071000  c.......c.......
 101c4 63da9702 9384f4ff b3049400 1309a000  c...............
 101d4 9309d000 13041400 a30fa4fe 97000000  ................
 101e4 e78040f3 63082501 63063501 e31494fe  ..@.c.%.c.5.....
 101f4 13840400 23000400 8320c101 03248101  ....#.... ...$..
 10204 83244101 03290101 8329c100 13010102  .$A..)...)......
 10214 67800000 93070500 93061500 03450500  g............E..
 10224 130505fd 03c71700 63020702 93861600  ........c.......
 10234 93172500 3385a700 13151500 3305e500  ..%.3.......3...
 10244 130505fd 03c70600 e31207fe 67800000  ............g...
 10254 13070500 93060500 1305a000 13089000  ................
 10264 63880504 93870600 93861600 33f6a502  c...........3...
 10274 13060603 a38fc6fe 13860500 b3d5a502  ................
 10284 e362c8fe 23800600 3385e740 6370f702  .b..#...3..@cp..
 10294 83c60700 03460700 2380c700 2300d700  .....F..#...#...
 102a4 9387f7ff 13071700 e364f7fe 67800000  .........d..g...
 102b4 93070003 2300f700 a3000700 13051000  ....#...........
 102c4 67800000 b7170100 23a20744 b7170100  g.......#..D....
 102d4 23a4a744 67800000 b7170100 83a74744  #..Dg.........GD
 102e4 63920702 b7170100 9387c744 37170000  c..........D7...
 102f4 13070780 3387e700 23a00700 93874700  ....3...#.....G.
 10304 e39ce7fe 635aa00a 13074500 93777700  ....cZ....E..ww.
 10314 63860700 137787ff 13078700 9357f741  c....w.......W.A
 10324 93f77700 b387e700 93d73740 b7160000  ..w.......7@....
 10334 6358d708 93972700 b7160100 9386c644  cX....'........D
 10344 b387d700 83a60700 638e0600 83a60700  ........c.......
 10354 03a60600 23a0c700 23a0e600 13854600  ....#...#.....F.
 10364 67800000 93162700 b386e600 93961600  g.....'.........
 10374 13063006 6348d600 93064006 b3c6e602  ..0.cH....@.....
 10384 b386e602 37160100 83258644 b386d500  ....7....%.D....
 10394 2324d644 3305e040 b386e640 e3e8b6fa  #$.D3..@...@....
 103a4 03a60700 23a0c600 23a0d700 b386a600  ....#...#.......
 103b4 e3f8b6fe 6ff09ff9 13050000 67800000  ....o.......g...
 103c4 13050000 67800000 0327c5ff 9357f741  ....g....'...W.A
 103d4 93f77700 b387e700 93d73740 93972700  ..w.......7@..'.
 103e4 37170100 1307c744 b387e700 03a70700  7......D........
 103f4 232ee5fe 1305c5ff 23a0a700 67800000  #.......#...g...
Contents of section .rodata:
 10404 48656a20 6d656420 64696720 2d20736b  Hej med dig - sk
 10414 72697620 6e6f6765 742c2073 61612062  riv noget, saa b
 10424 6c697665 72206a65 6720676c 61643a20  liver jeg glad: 
 10434 00000000 44752073 6b726576 3a2000    ....Du skrev: . 
Contents of section .comment:
 0000 4743433a 2028474e 55292031 302e322e  GCC: (GNU) 10.2.
 0010 3000                                 0.              
Contents of section .riscv.attributes:
 0000 41200000 00726973 63760001 16000000  A ...riscv......
 0010 04100572 76333269 3270305f 6d327030  ...rv32i2p0_m2p0
 0020 00                                   .               

echo.riscv:     file format elf32-littleriscv


Disassembly of section .text:

00010074 <main>:
   10074:	f7010113          	addi	sp,sp,-144
   10078:	08112623          	sw	ra,140(sp)
   1007c:	00010537          	lui	a0,0x10
   10080:	40450513          	addi	a0,a0,1028 # 10404 <release+0x38>
   10084:	00000097          	auipc	ra,0x0
   10088:	0c8080e7          	jalr	200(ra) # 1014c <print_string>
   1008c:	08000593          	li	a1,128
   10090:	00010513          	mv	a0,sp
   10094:	00000097          	auipc	ra,0x0
   10098:	0f4080e7          	jalr	244(ra) # 10188 <read_string>
   1009c:	00010537          	lui	a0,0x10
   100a0:	43850513          	addi	a0,a0,1080 # 10438 <release+0x6c>
   100a4:	00000097          	auipc	ra,0x0
   100a8:	0a8080e7          	jalr	168(ra) # 1014c <print_string>
   100ac:	00010513          	mv	a0,sp
   100b0:	00000097          	auipc	ra,0x0
   100b4:	09c080e7          	jalr	156(ra) # 1014c <print_string>
   100b8:	00000513          	li	a0,0
   100bc:	08c12083          	lw	ra,140(sp)
   100c0:	09010113          	addi	sp,sp,144
   100c4:	00008067          	ret

000100c8 <_start>:
   100c8:	01000537          	lui	a0,0x1000
   100cc:	00050113          	mv	sp,a0
   100d0:	02000537          	lui	a0,0x2000
   100d4:	00000097          	auipc	ra,0x0
   100d8:	1f4080e7          	jalr	500(ra) # 102c8 <init_heap>
   100dc:	01000537          	lui	a0,0x1000
   100e0:	00000097          	auipc	ra,0x0
   100e4:	010080e7          	jalr	16(ra) # 100f0 <args_to_main>
   100e8:	00000097          	auipc	ra,0x0
   100ec:	054080e7          	jalr	84(ra) # 1013c <terminate>

000100f0 <args_to_main>:
   100f0:	ff010113          	addi	sp,sp,-16
   100f4:	00112623          	sw	ra,12(sp)
   100f8:	00450593          	addi	a1,a0,4 # 1000004 <__BSS_END__+0xfee3b8>
   100fc:	00052503          	lw	a0,0(a0)
   10100:	00000097          	auipc	ra,0x0
   10104:	f74080e7          	jalr	-140(ra) # 10074 <main>
   10108:	00c12083          	lw	ra,12(sp)
   1010c:	01010113          	addi	sp,sp,16
   10110:	00008067          	ret

00010114 <inp>:
   10114:	00100893          	li	a7,1
   10118:	00000073          	ecall
   1011c:	00050513          	mv	a0,a0
   10120:	0ff57513          	andi	a0,a0,255
   10124:	00008067          	ret

00010128 <outp>:
   10128:	00050793          	mv	a5,a0
   1012c:	00078513          	mv	a0,a5
   10130:	00200893          	li	a7,2
   10134:	00000073          	ecall
   10138:	00008067          	ret

0001013c <terminate>:
   1013c:	00050513          	mv	a0,a0
   10140:	00300893          	li	a7,3
   10144:	00000073          	ecall
   10148:	00008067          	ret

0001014c <print_string>:
   1014c:	ff010113          	addi	sp,sp,-16
   10150:	00112623          	sw	ra,12(sp)
   10154:	00812423          	sw	s0,8(sp)
   10158:	00050413          	mv	s0,a0
   1015c:	00054503          	lbu	a0,0(a0)
   10160:	00050c63          	beqz	a0,10178 <print_string+0x2c>
   10164:	00140413          	addi	s0,s0,1
   10168:	00000097          	auipc	ra,0x0
   1016c:	fc0080e7          	jalr	-64(ra) # 10128 <outp>
   10170:	00044503          	lbu	a0,0(s0)
   10174:	fe0518e3          	bnez	a0,10164 <print_string+0x18>
   10178:	00c12083          	lw	ra,12(sp)
   1017c:	00812403          	lw	s0,8(sp)
   10180:	01010113          	addi	sp,sp,16
   10184:	00008067          	ret

00010188 <read_string>:
   10188:	fe010113          	addi	sp,sp,-32
   1018c:	00112e23          	sw	ra,28(sp)
   10190:	00812c23          	sw	s0,24(sp)
   10194:	00912a23          	sw	s1,20(sp)
   10198:	01212823          	sw	s2,16(sp)
   1019c:	01312623          	sw	s3,12(sp)
   101a0:	00050413          	mv	s0,a0
   101a4:	00058493          	mv	s1,a1
   101a8:	00000097          	auipc	ra,0x0
   101ac:	f6c080e7          	jalr	-148(ra) # 10114 <inp>
   101b0:	00a00793          	li	a5,10
   101b4:	04f50263          	beq	a0,a5,101f8 <read_string+0x70>
   101b8:	00d00793          	li	a5,13
   101bc:	02f50e63          	beq	a0,a5,101f8 <read_string+0x70>
   101c0:	00100793          	li	a5,1
   101c4:	0297da63          	bge	a5,s1,101f8 <read_string+0x70>
   101c8:	fff48493          	addi	s1,s1,-1
   101cc:	009404b3          	add	s1,s0,s1
   101d0:	00a00913          	li	s2,10
   101d4:	00d00993          	li	s3,13
   101d8:	00140413          	addi	s0,s0,1
   101dc:	fea40fa3          	sb	a0,-1(s0)
   101e0:	00000097          	auipc	ra,0x0
   101e4:	f34080e7          	jalr	-204(ra) # 10114 <inp>
   101e8:	01250863          	beq	a0,s2,101f8 <read_string+0x70>
   101ec:	01350663          	beq	a0,s3,101f8 <read_string+0x70>
   101f0:	fe9414e3          	bne	s0,s1,101d8 <read_string+0x50>
   101f4:	00048413          	mv	s0,s1
   101f8:	00040023          	sb	zero,0(s0)
   101fc:	01c12083          	lw	ra,28(sp)
   10200:	01812403          	lw	s0,24(sp)
   10204:	01412483          	lw	s1,20(sp)
   10208:	01012903          	lw	s2,16(sp)
   1020c:	00c12983          	lw	s3,12(sp)
   10210:	02010113          	addi	sp,sp,32
   10214:	00008067          	ret

00010218 <str_to_uns>:
   10218:	00050793          	mv	a5,a0
   1021c:	00150693          	addi	a3,a0,1
   10220:	00054503          	lbu	a0,0(a0)
   10224:	fd050513          	addi	a0,a0,-48
   10228:	0017c703          	lbu	a4,1(a5)
   1022c:	02070263          	beqz	a4,10250 <str_to_uns+0x38>
   10230:	00168693          	addi	a3,a3,1
   10234:	00251793          	slli	a5,a0,0x2
   10238:	00a78533          	add	a0,a5,a0
   1023c:	00151513          	slli	a0,a0,0x1
   10240:	00e50533          	add	a0,a0,a4
   10244:	fd050513          	addi	a0,a0,-48
   10248:	0006c703          	lbu	a4,0(a3)
   1024c:	fe0712e3          	bnez	a4,10230 <str_to_uns+0x18>
   10250:	00008067          	ret

00010254 <uns_to_str>:
   10254:	00050713          	mv	a4,a0
   10258:	00050693          	mv	a3,a0
   1025c:	00a00513          	li	a0,10
   10260:	00900813          	li	a6,9
   10264:	04058863          	beqz	a1,102b4 <uns_to_str+0x60>
   10268:	00068793          	mv	a5,a3
   1026c:	00168693          	addi	a3,a3,1
   10270:	02a5f633          	remu	a2,a1,a0
   10274:	03060613          	addi	a2,a2,48
   10278:	fec68fa3          	sb	a2,-1(a3)
   1027c:	00058613          	mv	a2,a1
   10280:	02a5d5b3          	divu	a1,a1,a0
   10284:	fec862e3          	bltu	a6,a2,10268 <uns_to_str+0x14>
   10288:	00068023          	sb	zero,0(a3)
   1028c:	40e78533          	sub	a0,a5,a4
   10290:	02f77063          	bgeu	a4,a5,102b0 <uns_to_str+0x5c>
   10294:	0007c683          	lbu	a3,0(a5)
   10298:	00074603          	lbu	a2,0(a4)
   1029c:	00c78023          	sb	a2,0(a5)
   102a0:	00d70023          	sb	a3,0(a4)
   102a4:	fff78793          	addi	a5,a5,-1
   102a8:	00170713          	addi	a4,a4,1
   102ac:	fef764e3          	bltu	a4,a5,10294 <uns_to_str+0x40>
   102b0:	00008067          	ret
   102b4:	03000793          	li	a5,48
   102b8:	00f70023          	sb	a5,0(a4)
   102bc:	000700a3          	sb	zero,1(a4)
   102c0:	00100513          	li	a0,1
   102c4:	00008067          	ret

000102c8 <init_heap>:
   102c8:	000117b7          	lui	a5,0x11
   102cc:	4407a223          	sw	zero,1092(a5) # 11444 <initialized>
   102d0:	000117b7          	lui	a5,0x11
   102d4:	44a7a423          	sw	a0,1096(a5) # 11448 <free_space>
   102d8:	00008067          	ret

000102dc <allocate>:
   102dc:	000117b7          	lui	a5,0x11
   102e0:	4447a783          	lw	a5,1092(a5) # 11444 <initialized>
   102e4:	02079263          	bnez	a5,10308 <allocate+0x2c>
   102e8:	000117b7          	lui	a5,0x11
   102ec:	44c78793          	addi	a5,a5,1100 # 1144c <small_block_headers>
   102f0:	00001737          	lui	a4,0x1
   102f4:	80070713          	addi	a4,a4,-2048 # 800 <main-0xf874>
   102f8:	00e78733          	add	a4,a5,a4
   102fc:	0007a023          	sw	zero,0(a5)
   10300:	00478793          	addi	a5,a5,4
   10304:	fee79ce3          	bne	a5,a4,102fc <allocate+0x20>
   10308:	0aa05a63          	blez	a0,103bc <allocate+0xe0>
   1030c:	00450713          	addi	a4,a0,4
   10310:	00777793          	andi	a5,a4,7
   10314:	00078663          	beqz	a5,10320 <allocate+0x44>
   10318:	ff877713          	andi	a4,a4,-8
   1031c:	00870713          	addi	a4,a4,8
   10320:	41f75793          	srai	a5,a4,0x1f
   10324:	0077f793          	andi	a5,a5,7
   10328:	00e787b3          	add	a5,a5,a4
   1032c:	4037d793          	srai	a5,a5,0x3
   10330:	000016b7          	lui	a3,0x1
   10334:	08d75863          	bge	a4,a3,103c4 <allocate+0xe8>
   10338:	00279793          	slli	a5,a5,0x2
   1033c:	000116b7          	lui	a3,0x11
   10340:	44c68693          	addi	a3,a3,1100 # 1144c <small_block_headers>
   10344:	00d787b3          	add	a5,a5,a3
   10348:	0007a683          	lw	a3,0(a5)
   1034c:	00068e63          	beqz	a3,10368 <allocate+0x8c>
   10350:	0007a683          	lw	a3,0(a5)
   10354:	0006a603          	lw	a2,0(a3)
   10358:	00c7a023          	sw	a2,0(a5)
   1035c:	00e6a023          	sw	a4,0(a3)
   10360:	00468513          	addi	a0,a3,4
   10364:	00008067          	ret
   10368:	00271693          	slli	a3,a4,0x2
   1036c:	00e686b3          	add	a3,a3,a4
   10370:	00169693          	slli	a3,a3,0x1
   10374:	06300613          	li	a2,99
   10378:	00d64863          	blt	a2,a3,10388 <allocate+0xac>
   1037c:	06400693          	li	a3,100
   10380:	02e6c6b3          	div	a3,a3,a4
   10384:	02e686b3          	mul	a3,a3,a4
   10388:	00011637          	lui	a2,0x11
   1038c:	44862583          	lw	a1,1096(a2) # 11448 <free_space>
   10390:	00d586b3          	add	a3,a1,a3
   10394:	44d62423          	sw	a3,1096(a2)
   10398:	40e00533          	neg	a0,a4
   1039c:	40e686b3          	sub	a3,a3,a4
   103a0:	fab6e8e3          	bltu	a3,a1,10350 <allocate+0x74>
   103a4:	0007a603          	lw	a2,0(a5)
   103a8:	00c6a023          	sw	a2,0(a3)
   103ac:	00d7a023          	sw	a3,0(a5)
   103b0:	00a686b3          	add	a3,a3,a0
   103b4:	feb6f8e3          	bgeu	a3,a1,103a4 <allocate+0xc8>
   103b8:	f99ff06f          	j	10350 <allocate+0x74>
   103bc:	00000513          	li	a0,0
   103c0:	00008067          	ret
   103c4:	00000513          	li	a0,0
   103c8:	00008067          	ret

000103cc <release>:
   103cc:	ffc52703          	lw	a4,-4(a0)
   103d0:	41f75793          	srai	a5,a4,0x1f
   103d4:	0077f793          	andi	a5,a5,7
   103d8:	00e787b3          	add	a5,a5,a4
   103dc:	4037d793          	srai	a5,a5,0x3
   103e0:	00279793          	slli	a5,a5,0x2
   103e4:	00011737          	lui	a4,0x11
   103e8:	44c70713          	addi	a4,a4,1100 # 1144c <small_block_headers>
   103ec:	00e787b3          	add	a5,a5,a4
   103f0:	0007a703          	lw	a4,0(a5)
   103f4:	fee52e23          	sw	a4,-4(a0)
   103f8:	ffc50513          	addi	a0,a0,-4
   103fc:	00a7a023          	sw	a0,0(a5)
   10400:	00008067          	ret
